; ModuleID = '22/86.c'
source_filename = "22/86.c"
target datalayout = "e-m:e-p270:32:32-p271:32:32-p272:64:64-i64:64-f80:128-n8:16:32:64-S128"
target triple = "x86_64-pc-linux-gnu"

@.str = private unnamed_addr constant [3 x i8] c"%d\00", align 1
@.str.1 = private unnamed_addr constant [4 x i8] c",%d\00", align 1
@.str.2 = private unnamed_addr constant [3 x i8] c"%s\00", align 1
@.str.3 = private unnamed_addr constant [3 x i8] c"No\00", align 1

; Function Attrs: noinline nounwind uwtable
define dso_local void @main() #0 {
  %1 = alloca [300 x i32], align 16
  %2 = alloca i32, align 4
  %3 = alloca i32, align 4
  %4 = alloca i32, align 4
  %5 = alloca i32, align 4
  %6 = alloca i32, align 4
  %7 = alloca i32, align 4
  %8 = alloca i32, align 4
  %9 = alloca i32, align 4
  store i32 0, i32* %6, align 4
  store i32 0, i32* %9, align 4
  br label %10

10:                                               ; preds = %17, %0
  %11 = load i32, i32* %9, align 4
  %12 = icmp slt i32 %11, 300
  br i1 %12, label %13, label %20

13:                                               ; preds = %10
  %14 = load i32, i32* %9, align 4
  %15 = sext i32 %14 to i64
  %16 = getelementptr inbounds [300 x i32], [300 x i32]* %1, i64 0, i64 %15
  store i32 0, i32* %16, align 4
  br label %17

17:                                               ; preds = %13
  %18 = load i32, i32* %9, align 4
  %19 = add nsw i32 %18, 1
  store i32 %19, i32* %9, align 4
  br label %10

20:                                               ; preds = %10
  %21 = getelementptr inbounds [300 x i32], [300 x i32]* %1, i64 0, i64 0
  %22 = call i32 (i8*, ...) @__isoc99_scanf(i8* getelementptr inbounds ([3 x i8], [3 x i8]* @.str, i64 0, i64 0), i32* %21)
  store i32 1, i32* %2, align 4
  br label %23

23:                                               ; preds = %31, %20
  %24 = load i32, i32* %2, align 4
  %25 = icmp slt i32 %24, 300
  br i1 %25, label %26, label %34

26:                                               ; preds = %23
  %27 = load i32, i32* %2, align 4
  %28 = sext i32 %27 to i64
  %29 = getelementptr inbounds [300 x i32], [300 x i32]* %1, i64 0, i64 %28
  %30 = call i32 (i8*, ...) @__isoc99_scanf(i8* getelementptr inbounds ([4 x i8], [4 x i8]* @.str.1, i64 0, i64 0), i32* %29)
  br label %31

31:                                               ; preds = %26
  %32 = load i32, i32* %2, align 4
  %33 = add nsw i32 %32, 1
  store i32 %33, i32* %2, align 4
  br label %23

34:                                               ; preds = %23
  store i32 0, i32* %3, align 4
  br label %35

35:                                               ; preds = %55, %34
  %36 = load i32, i32* %3, align 4
  %37 = icmp slt i32 %36, 300
  br i1 %37, label %38, label %58

38:                                               ; preds = %35
  %39 = load i32, i32* %3, align 4
  %40 = sext i32 %39 to i64
  %41 = getelementptr inbounds [300 x i32], [300 x i32]* %1, i64 0, i64 %40
  %42 = load i32, i32* %41, align 4
  %43 = icmp ne i32 %42, 0
  br i1 %43, label %51, label %44

44:                                               ; preds = %38
  %45 = load i32, i32* %3, align 4
  %46 = add nsw i32 %45, 1
  %47 = sext i32 %46 to i64
  %48 = getelementptr inbounds [300 x i32], [300 x i32]* %1, i64 0, i64 %47
  %49 = load i32, i32* %48, align 4
  %50 = icmp ne i32 %49, 0
  br i1 %50, label %51, label %54

51:                                               ; preds = %44, %38
  %52 = load i32, i32* %6, align 4
  %53 = add nsw i32 %52, 1
  store i32 %53, i32* %6, align 4
  br label %54

54:                                               ; preds = %51, %44
  br label %55

55:                                               ; preds = %54
  %56 = load i32, i32* %3, align 4
  %57 = add nsw i32 %56, 1
  store i32 %57, i32* %3, align 4
  br label %35

58:                                               ; preds = %35
  %59 = load i32, i32* %6, align 4
  %60 = icmp eq i32 %59, 1
  br i1 %60, label %61, label %63

61:                                               ; preds = %58
  %62 = call i32 (i8*, ...) @printf(i8* getelementptr inbounds ([3 x i8], [3 x i8]* @.str.2, i64 0, i64 0), i8* getelementptr inbounds ([3 x i8], [3 x i8]* @.str.3, i64 0, i64 0))
  br label %63

63:                                               ; preds = %61, %58
  store i32 0, i32* %4, align 4
  br label %64

64:                                               ; preds = %111, %63
  %65 = load i32, i32* %4, align 4
  %66 = load i32, i32* %6, align 4
  %67 = sub nsw i32 %66, 1
  %68 = icmp slt i32 %65, %67
  br i1 %68, label %69, label %114

69:                                               ; preds = %64
  store i32 0, i32* %5, align 4
  br label %70

70:                                               ; preds = %107, %69
  %71 = load i32, i32* %5, align 4
  %72 = load i32, i32* %6, align 4
  %73 = sub nsw i32 %72, 1
  %74 = load i32, i32* %4, align 4
  %75 = sub nsw i32 %73, %74
  %76 = icmp slt i32 %71, %75
  br i1 %76, label %77, label %110

77:                                               ; preds = %70
  %78 = load i32, i32* %5, align 4
  %79 = sext i32 %78 to i64
  %80 = getelementptr inbounds [300 x i32], [300 x i32]* %1, i64 0, i64 %79
  %81 = load i32, i32* %80, align 4
  %82 = load i32, i32* %5, align 4
  %83 = add nsw i32 %82, 1
  %84 = sext i32 %83 to i64
  %85 = getelementptr inbounds [300 x i32], [300 x i32]* %1, i64 0, i64 %84
  %86 = load i32, i32* %85, align 4
  %87 = icmp sgt i32 %81, %86
  br i1 %87, label %88, label %106

88:                                               ; preds = %77
  %89 = load i32, i32* %5, align 4
  %90 = sext i32 %89 to i64
  %91 = getelementptr inbounds [300 x i32], [300 x i32]* %1, i64 0, i64 %90
  %92 = load i32, i32* %91, align 4
  store i32 %92, i32* %7, align 4
  %93 = load i32, i32* %5, align 4
  %94 = add nsw i32 %93, 1
  %95 = sext i32 %94 to i64
  %96 = getelementptr inbounds [300 x i32], [300 x i32]* %1, i64 0, i64 %95
  %97 = load i32, i32* %96, align 4
  %98 = load i32, i32* %5, align 4
  %99 = sext i32 %98 to i64
  %100 = getelementptr inbounds [300 x i32], [300 x i32]* %1, i64 0, i64 %99
  store i32 %97, i32* %100, align 4
  %101 = load i32, i32* %7, align 4
  %102 = load i32, i32* %5, align 4
  %103 = add nsw i32 %102, 1
  %104 = sext i32 %103 to i64
  %105 = getelementptr inbounds [300 x i32], [300 x i32]* %1, i64 0, i64 %104
  store i32 %101, i32* %105, align 4
  br label %106

106:                                              ; preds = %88, %77
  br label %107

107:                                              ; preds = %106
  %108 = load i32, i32* %5, align 4
  %109 = add nsw i32 %108, 1
  store i32 %109, i32* %5, align 4
  br label %70

110:                                              ; preds = %70
  br label %111

111:                                              ; preds = %110
  %112 = load i32, i32* %4, align 4
  %113 = add nsw i32 %112, 1
  store i32 %113, i32* %4, align 4
  br label %64

114:                                              ; preds = %64
  %115 = getelementptr inbounds [300 x i32], [300 x i32]* %1, i64 0, i64 0
  %116 = load i32, i32* %115, align 16
  %117 = load i32, i32* %6, align 4
  %118 = sub nsw i32 %117, 1
  %119 = sext i32 %118 to i64
  %120 = getelementptr inbounds [300 x i32], [300 x i32]* %1, i64 0, i64 %119
  %121 = load i32, i32* %120, align 4
  %122 = icmp eq i32 %116, %121
  br i1 %122, label %123, label %128

123:                                              ; preds = %114
  %124 = load i32, i32* %6, align 4
  %125 = icmp ne i32 %124, 1
  br i1 %125, label %126, label %128

126:                                              ; preds = %123
  %127 = call i32 (i8*, ...) @printf(i8* getelementptr inbounds ([3 x i8], [3 x i8]* @.str.2, i64 0, i64 0), i8* getelementptr inbounds ([3 x i8], [3 x i8]* @.str.3, i64 0, i64 0))
  br label %156

128:                                              ; preds = %123, %114
  %129 = load i32, i32* %6, align 4
  %130 = sub nsw i32 %129, 2
  store i32 %130, i32* %8, align 4
  br label %131

131:                                              ; preds = %152, %128
  %132 = load i32, i32* %8, align 4
  %133 = icmp sge i32 %132, 0
  br i1 %133, label %134, label %155

134:                                              ; preds = %131
  %135 = load i32, i32* %8, align 4
  %136 = sext i32 %135 to i64
  %137 = getelementptr inbounds [300 x i32], [300 x i32]* %1, i64 0, i64 %136
  %138 = load i32, i32* %137, align 4
  %139 = load i32, i32* %6, align 4
  %140 = sub nsw i32 %139, 1
  %141 = sext i32 %140 to i64
  %142 = getelementptr inbounds [300 x i32], [300 x i32]* %1, i64 0, i64 %141
  %143 = load i32, i32* %142, align 4
  %144 = icmp slt i32 %138, %143
  br i1 %144, label %145, label %151

145:                                              ; preds = %134
  %146 = load i32, i32* %8, align 4
  %147 = sext i32 %146 to i64
  %148 = getelementptr inbounds [300 x i32], [300 x i32]* %1, i64 0, i64 %147
  %149 = load i32, i32* %148, align 4
  %150 = call i32 (i8*, ...) @printf(i8* getelementptr inbounds ([3 x i8], [3 x i8]* @.str, i64 0, i64 0), i32 %149)
  br label %155

151:                                              ; preds = %134
  br label %152

152:                                              ; preds = %151
  %153 = load i32, i32* %8, align 4
  %154 = add nsw i32 %153, -1
  store i32 %154, i32* %8, align 4
  br label %131

155:                                              ; preds = %145, %131
  br label %156

156:                                              ; preds = %155, %126
  ret void
}

declare dso_local i32 @__isoc99_scanf(i8*, ...) #1

declare dso_local i32 @printf(i8*, ...) #1


!llvm.module.flags = !{!0}
!llvm.ident = !{!1}

!0 = !{i32 1, !"wchar_size", i32 4}
!1 = !{!"clang version 10.0.0-4ubuntu1 "}
